; Function Attrs: mustprogress uwtable
define void @_ZN9grpc_core23GrpcXdsTransportFactory16GrpcXdsTransport17GrpcStreamingCall16OnStatusReceivedEPvN4absl12lts_202407226StatusE(ptr noundef %0, ptr readnone captures(none) %1) #3 align 2 personality ptr @__gxx_personality_v0 {
  %3 = alloca %"class.absl::lts_20240722::Status", align 8
  %4 = getelementptr inbounds nuw i8, ptr %0, i64 24
  %5 = load ptr, ptr %4, align 8, !tbaa !14
  %6 = getelementptr inbounds nuw i8, ptr %0, i64 200
  %7 = load i32, ptr %6, align 8, !tbaa !96
  %8 = getelementptr inbounds nuw i8, ptr %0, i64 208
  %9 = load ptr, ptr %8, align 8, !tbaa !71
  %.not.i = icmp eq ptr %9, null
  %10 = getelementptr inbounds nuw i8, ptr %0, i64 224
  %11 = load ptr, ptr %10, align 8
  %12 = getelementptr inbounds nuw i8, ptr %0, i64 217
  %13 = select i1 %.not.i, ptr %12, ptr %11
  %14 = getelementptr inbounds nuw i8, ptr %0, i64 216
  %15 = load i64, ptr %14, align 8
  %16 = and i64 %15, 255
  %17 = select i1 %.not.i, i64 %16, i64 %15
  invoke void @_ZN4absl12lts_202407226StatusC1ENS0_10StatusCodeESt17basic_string_viewIcSt11char_traitsIcEE(ptr noundef nonnull align 8 dereferenceable(8) %3, i32 noundef %7, i64 %17, ptr %13)
          to label %18 unwind label %37

18:                                               ; preds = %2
  %19 = load ptr, ptr %5, align 8, !tbaa !8
  %20 = getelementptr inbounds nuw i8, ptr %19, i64 32
  %21 = load ptr, ptr %20, align 8
  invoke void %21(ptr noundef nonnull align 8 dereferenceable(8) %5, ptr noundef nonnull %3)
          to label %22 unwind label %39

22:                                               ; preds = %18
  %23 = load i64, ptr %3, align 8, !tbaa !94
  %24 = and i64 %23, 1
  %.not.i.i = icmp eq i64 %24, 0
  br i1 %.not.i.i, label %25, label %_ZN4absl12lts_202407226StatusD2Ev.exit

25:                                               ; preds = %22
  %26 = inttoptr i64 %23 to ptr
  invoke void @_ZNK4absl12lts_2024072215status_internal9StatusRep5UnrefEv(ptr noundef nonnull align 8 dereferenceable(48) %26)
          to label %_ZN4absl12lts_202407226StatusD2Ev.exit unwind label %27

27:                                               ; preds = %25
  %28 = landingpad { ptr, i32 }
          catch ptr null
  %29 = extractvalue { ptr, i32 } %28, 0
  call void @__clang_call_terminate(ptr %29) #36
  unreachable

_ZN4absl12lts_202407226StatusD2Ev.exit:           ; preds = %25, %22
  %30 = getelementptr inbounds nuw i8, ptr %0, i64 8
  %31 = atomicrmw sub ptr %30, i64 1 acq_rel, align 8
  %32 = icmp eq i64 %31, 1
  br i1 %32, label %33, label %_ZN9grpc_core13RefCountedPtrINS_23GrpcXdsTransportFactory16GrpcXdsTransport17GrpcStreamingCallEED2Ev.exit, !prof !75

33:                                               ; preds = %_ZN4absl12lts_202407226StatusD2Ev.exit
  %34 = load ptr, ptr %0, align 8, !tbaa !8
  %35 = getelementptr inbounds nuw i8, ptr %34, i64 16
  %36 = load ptr, ptr %35, align 8
  call void %36(ptr noundef nonnull align 8 dereferenceable(16) %0) #37
  br label %_ZN9grpc_core13RefCountedPtrINS_23GrpcXdsTransportFactory16GrpcXdsTransport17GrpcStreamingCallEED2Ev.exit

_ZN9grpc_core13RefCountedPtrINS_23GrpcXdsTransportFactory16GrpcXdsTransport17GrpcStreamingCallEED2Ev.exit: ; preds = %_ZN4absl12lts_202407226StatusD2Ev.exit, %33
  ret void

37:                                               ; preds = %2
  %38 = landingpad { ptr, i32 }
          cleanup
  br label %41

39:                                               ; preds = %18
  %40 = landingpad { ptr, i32 }
          cleanup
  call void @_ZN4absl12lts_202407226StatusD2Ev(ptr noundef nonnull align 8 dereferenceable(8) %3) #37
  br label %41

41:                                               ; preds = %37, %39
  %.pn = phi { ptr, i32 } [ %40, %39 ], [ %38, %37 ]
  %42 = getelementptr inbounds nuw i8, ptr %0, i64 8
  %43 = atomicrmw sub ptr %42, i64 1 acq_rel, align 8
  %44 = icmp eq i64 %43, 1
  br i1 %44, label %45, label %_ZN9grpc_core13RefCountedPtrINS_23GrpcXdsTransportFactory16GrpcXdsTransport17GrpcStreamingCallEED2Ev.exit6, !prof !75

45:                                               ; preds = %41
  %46 = load ptr, ptr %0, align 8, !tbaa !8
  %47 = getelementptr inbounds nuw i8, ptr %46, i64 16
  %48 = load ptr, ptr %47, align 8
  call void %48(ptr noundef nonnull align 8 dereferenceable(16) %0) #37
  br label %_ZN9grpc_core13RefCountedPtrINS_23GrpcXdsTransportFactory16GrpcXdsTransport17GrpcStreamingCallEED2Ev.exit6

_ZN9grpc_core13RefCountedPtrINS_23GrpcXdsTransportFactory16GrpcXdsTransport17GrpcStreamingCallEED2Ev.exit6: ; preds = %41, %45
  resume { ptr, i32 } %.pn
}